; Function Attrs: nounwind uwtable
define zeroext range(i8 0, 2) i8 @l_Lean_Elab_Command_instMonadLogCommandElabM___lambda__5(ptr noundef %0) local_unnamed_addr #0 {
  %2 = ptrtoint ptr %0 to i64
  %3 = and i64 %2, 1
  %.not.i = icmp eq i64 %3, 0
  br i1 %.not.i, label %7, label %4

4:                                                ; preds = %1
  %5 = lshr i64 %2, 1
  %6 = trunc i64 %5 to i32
  br label %lean_obj_tag.exit

7:                                                ; preds = %1
  %8 = getelementptr i8, ptr %0, i64 4
  %.val.i = load i32, ptr %8, align 4
  %9 = lshr i32 %.val.i, 24
  br label %lean_obj_tag.exit

lean_obj_tag.exit:                                ; preds = %4, %7
  %.0.i = phi i32 [ %6, %4 ], [ %9, %7 ]
  %10 = icmp eq i32 %.0.i, 1
  br i1 %10, label %11, label %lean_string_dec_eq.exit

11:                                               ; preds = %lean_obj_tag.exit
  %12 = getelementptr inbounds nuw i8, ptr %0, i64 8
  %13 = load ptr, ptr %12, align 8, !tbaa !9
  %14 = ptrtoint ptr %13 to i64
  %15 = and i64 %14, 1
  %.not.i9 = icmp eq i64 %15, 0
  br i1 %.not.i9, label %19, label %16

16:                                               ; preds = %11
  %17 = lshr i64 %14, 1
  %18 = trunc i64 %17 to i32
  br label %lean_obj_tag.exit12

19:                                               ; preds = %11
  %20 = getelementptr i8, ptr %13, i64 4
  %.val.i11 = load i32, ptr %20, align 4
  %21 = lshr i32 %.val.i11, 24
  br label %lean_obj_tag.exit12

lean_obj_tag.exit12:                              ; preds = %16, %19
  %.0.i10 = phi i32 [ %18, %16 ], [ %21, %19 ]
  %22 = icmp eq i32 %.0.i10, 0
  br i1 %22, label %23, label %lean_string_dec_eq.exit

23:                                               ; preds = %lean_obj_tag.exit12
  %24 = getelementptr inbounds nuw i8, ptr %0, i64 16
  %25 = load ptr, ptr %24, align 8, !tbaa !9
  %26 = load ptr, ptr @l_Lean_Elab_Command_instMonadLogCommandElabM___lambda__5___closed__1, align 8, !tbaa !9
  %27 = icmp eq ptr %25, %26
  br i1 %27, label %lean_string_dec_eq.exit, label %28

28:                                               ; preds = %23
  %29 = getelementptr i8, ptr %25, i64 8
  %.val.i.i = load i64, ptr %29, align 8, !tbaa !11
  %30 = getelementptr i8, ptr %26, i64 8
  %.val7.i.i = load i64, ptr %30, align 8, !tbaa !11
  %31 = icmp eq i64 %.val.i.i, %.val7.i.i
  br i1 %31, label %32, label %lean_string_dec_eq.exit

32:                                               ; preds = %28
  %33 = tail call zeroext i1 @lean_string_eq_cold(ptr noundef nonnull %25, ptr noundef nonnull %26) #6
  %34 = zext i1 %33 to i8
  br label %lean_string_dec_eq.exit

lean_string_dec_eq.exit:                          ; preds = %32, %28, %23, %lean_obj_tag.exit, %lean_obj_tag.exit12
  %.1 = phi i8 [ 0, %lean_obj_tag.exit12 ], [ 0, %lean_obj_tag.exit ], [ 1, %23 ], [ 0, %28 ], [ %34, %32 ]
  ret i8 %.1
}